; ModuleID = '24/1725.c'
source_filename = "24/1725.c"
target datalayout = "e-m:e-p270:32:32-p271:32:32-p272:64:64-i64:64-f80:128-n8:16:32:64-S128"
target triple = "x86_64-pc-linux-gnu"

@.str = private unnamed_addr constant [4 x i8] c"%s\0A\00", align 1

; Function Attrs: noinline nounwind uwtable
define dso_local i32 @main() #0 {
  %1 = alloca i32, align 4
  %2 = alloca [200 x i8], align 16
  %3 = alloca [200 x [200 x i8]], align 16
  %4 = alloca [200 x i8], align 16
  %5 = alloca [100 x i8], align 16
  %6 = alloca [100 x i8], align 16
  %7 = alloca [100 x i8], align 16
  %8 = alloca i32, align 4
  %9 = alloca i32, align 4
  %10 = alloca i32, align 4
  %11 = alloca i32, align 4
  %12 = alloca i32, align 4
  %13 = alloca i32, align 4
  %14 = alloca i32, align 4
  %15 = alloca i32, align 4
  store i32 0, i32* %1, align 4
  store i32 0, i32* %10, align 4
  store i32 0, i32* %11, align 4
  store i32 0, i32* %13, align 4
  store i32 0, i32* %15, align 4
  %16 = getelementptr inbounds [200 x i8], [200 x i8]* %2, i64 0, i64 0
  %17 = call i32 (i8*, ...) bitcast (i32 (...)* @gets to i32 (i8*, ...)*)(i8* %16)
  %18 = getelementptr inbounds [200 x i8], [200 x i8]* %2, i64 0, i64 0
  %19 = call i64 @strlen(i8* %18) #4
  %20 = trunc i64 %19 to i32
  store i32 %20, i32* %9, align 4
  store i32 0, i32* %8, align 4
  br label %21

21:                                               ; preds = %66, %0
  %22 = load i32, i32* %8, align 4
  %23 = load i32, i32* %9, align 4
  %24 = icmp slt i32 %22, %23
  br i1 %24, label %25, label %69

25:                                               ; preds = %21
  %26 = load i32, i32* %8, align 4
  %27 = sext i32 %26 to i64
  %28 = getelementptr inbounds [200 x i8], [200 x i8]* %2, i64 0, i64 %27
  %29 = load i8, i8* %28, align 1
  %30 = sext i8 %29 to i32
  %31 = icmp eq i32 %30, 32
  br i1 %31, label %32, label %65

32:                                               ; preds = %25
  store i32 0, i32* %13, align 4
  %33 = load i32, i32* %11, align 4
  store i32 %33, i32* %12, align 4
  br label %34

34:                                               ; preds = %51, %32
  %35 = load i32, i32* %12, align 4
  %36 = load i32, i32* %8, align 4
  %37 = icmp slt i32 %35, %36
  br i1 %37, label %38, label %54

38:                                               ; preds = %34
  %39 = load i32, i32* %12, align 4
  %40 = sext i32 %39 to i64
  %41 = getelementptr inbounds [200 x i8], [200 x i8]* %2, i64 0, i64 %40
  %42 = load i8, i8* %41, align 1
  %43 = load i32, i32* %10, align 4
  %44 = sext i32 %43 to i64
  %45 = getelementptr inbounds [200 x [200 x i8]], [200 x [200 x i8]]* %3, i64 0, i64 %44
  %46 = load i32, i32* %13, align 4
  %47 = sext i32 %46 to i64
  %48 = getelementptr inbounds [200 x i8], [200 x i8]* %45, i64 0, i64 %47
  store i8 %42, i8* %48, align 1
  %49 = load i32, i32* %13, align 4
  %50 = add nsw i32 %49, 1
  store i32 %50, i32* %13, align 4
  br label %51

51:                                               ; preds = %38
  %52 = load i32, i32* %12, align 4
  %53 = add nsw i32 %52, 1
  store i32 %53, i32* %12, align 4
  br label %34

54:                                               ; preds = %34
  %55 = load i32, i32* %10, align 4
  %56 = sext i32 %55 to i64
  %57 = getelementptr inbounds [200 x [200 x i8]], [200 x [200 x i8]]* %3, i64 0, i64 %56
  %58 = load i32, i32* %13, align 4
  %59 = sext i32 %58 to i64
  %60 = getelementptr inbounds [200 x i8], [200 x i8]* %57, i64 0, i64 %59
  store i8 0, i8* %60, align 1
  %61 = load i32, i32* %8, align 4
  %62 = add nsw i32 %61, 1
  store i32 %62, i32* %11, align 4
  %63 = load i32, i32* %10, align 4
  %64 = add nsw i32 %63, 1
  store i32 %64, i32* %10, align 4
  br label %65

65:                                               ; preds = %54, %25
  br label %66

66:                                               ; preds = %65
  %67 = load i32, i32* %8, align 4
  %68 = add nsw i32 %67, 1
  store i32 %68, i32* %8, align 4
  br label %21

69:                                               ; preds = %21
  store i32 0, i32* %13, align 4
  %70 = load i32, i32* %11, align 4
  store i32 %70, i32* %12, align 4
  br label %71

71:                                               ; preds = %88, %69
  %72 = load i32, i32* %12, align 4
  %73 = load i32, i32* %9, align 4
  %74 = icmp slt i32 %72, %73
  br i1 %74, label %75, label %91

75:                                               ; preds = %71
  %76 = load i32, i32* %12, align 4
  %77 = sext i32 %76 to i64
  %78 = getelementptr inbounds [200 x i8], [200 x i8]* %2, i64 0, i64 %77
  %79 = load i8, i8* %78, align 1
  %80 = load i32, i32* %10, align 4
  %81 = sext i32 %80 to i64
  %82 = getelementptr inbounds [200 x [200 x i8]], [200 x [200 x i8]]* %3, i64 0, i64 %81
  %83 = load i32, i32* %13, align 4
  %84 = sext i32 %83 to i64
  %85 = getelementptr inbounds [200 x i8], [200 x i8]* %82, i64 0, i64 %84
  store i8 %79, i8* %85, align 1
  %86 = load i32, i32* %13, align 4
  %87 = add nsw i32 %86, 1
  store i32 %87, i32* %13, align 4
  br label %88

88:                                               ; preds = %75
  %89 = load i32, i32* %12, align 4
  %90 = add nsw i32 %89, 1
  store i32 %90, i32* %12, align 4
  br label %71

91:                                               ; preds = %71
  %92 = load i32, i32* %10, align 4
  %93 = sext i32 %92 to i64
  %94 = getelementptr inbounds [200 x [200 x i8]], [200 x [200 x i8]]* %3, i64 0, i64 %93
  %95 = load i32, i32* %13, align 4
  %96 = sext i32 %95 to i64
  %97 = getelementptr inbounds [200 x i8], [200 x i8]* %94, i64 0, i64 %96
  store i8 0, i8* %97, align 1
  %98 = load i32, i32* %10, align 4
  %99 = add nsw i32 %98, 1
  store i32 %99, i32* %14, align 4
  %100 = getelementptr inbounds [100 x i8], [100 x i8]* %6, i64 0, i64 0
  %101 = getelementptr inbounds [200 x [200 x i8]], [200 x [200 x i8]]* %3, i64 0, i64 0
  %102 = getelementptr inbounds [200 x i8], [200 x i8]* %101, i64 0, i64 0
  %103 = call i8* @strcpy(i8* %100, i8* %102) #5
  %104 = getelementptr inbounds [100 x i8], [100 x i8]* %7, i64 0, i64 0
  %105 = getelementptr inbounds [200 x [200 x i8]], [200 x [200 x i8]]* %3, i64 0, i64 0
  %106 = getelementptr inbounds [200 x i8], [200 x i8]* %105, i64 0, i64 0
  %107 = call i8* @strcpy(i8* %104, i8* %106) #5
  store i32 0, i32* %10, align 4
  br label %108

108:                                              ; preds = %145, %91
  %109 = load i32, i32* %10, align 4
  %110 = load i32, i32* %14, align 4
  %111 = icmp slt i32 %109, %110
  br i1 %111, label %112, label %148

112:                                              ; preds = %108
  %113 = load i32, i32* %10, align 4
  %114 = sext i32 %113 to i64
  %115 = getelementptr inbounds [200 x [200 x i8]], [200 x [200 x i8]]* %3, i64 0, i64 %114
  %116 = getelementptr inbounds [200 x i8], [200 x i8]* %115, i64 0, i64 0
  %117 = call i64 @strlen(i8* %116) #4
  %118 = getelementptr inbounds [100 x i8], [100 x i8]* %6, i64 0, i64 0
  %119 = call i64 @strlen(i8* %118) #4
  %120 = icmp ugt i64 %117, %119
  br i1 %120, label %121, label %128

121:                                              ; preds = %112
  %122 = getelementptr inbounds [100 x i8], [100 x i8]* %6, i64 0, i64 0
  %123 = load i32, i32* %10, align 4
  %124 = sext i32 %123 to i64
  %125 = getelementptr inbounds [200 x [200 x i8]], [200 x [200 x i8]]* %3, i64 0, i64 %124
  %126 = getelementptr inbounds [200 x i8], [200 x i8]* %125, i64 0, i64 0
  %127 = call i8* @strcpy(i8* %122, i8* %126) #5
  br label %128

128:                                              ; preds = %121, %112
  %129 = load i32, i32* %10, align 4
  %130 = sext i32 %129 to i64
  %131 = getelementptr inbounds [200 x [200 x i8]], [200 x [200 x i8]]* %3, i64 0, i64 %130
  %132 = getelementptr inbounds [200 x i8], [200 x i8]* %131, i64 0, i64 0
  %133 = call i64 @strlen(i8* %132) #4
  %134 = getelementptr inbounds [100 x i8], [100 x i8]* %7, i64 0, i64 0
  %135 = call i64 @strlen(i8* %134) #4
  %136 = icmp ult i64 %133, %135
  br i1 %136, label %137, label %144

137:                                              ; preds = %128
  %138 = getelementptr inbounds [100 x i8], [100 x i8]* %7, i64 0, i64 0
  %139 = load i32, i32* %10, align 4
  %140 = sext i32 %139 to i64
  %141 = getelementptr inbounds [200 x [200 x i8]], [200 x [200 x i8]]* %3, i64 0, i64 %140
  %142 = getelementptr inbounds [200 x i8], [200 x i8]* %141, i64 0, i64 0
  %143 = call i8* @strcpy(i8* %138, i8* %142) #5
  br label %144

144:                                              ; preds = %137, %128
  br label %145

145:                                              ; preds = %144
  %146 = load i32, i32* %10, align 4
  %147 = add nsw i32 %146, 1
  store i32 %147, i32* %10, align 4
  br label %108

148:                                              ; preds = %108
  %149 = getelementptr inbounds [100 x i8], [100 x i8]* %6, i64 0, i64 0
  %150 = call i32 (i8*, ...) @printf(i8* getelementptr inbounds ([4 x i8], [4 x i8]* @.str, i64 0, i64 0), i8* %149)
  %151 = getelementptr inbounds [100 x i8], [100 x i8]* %7, i64 0, i64 0
  %152 = call i32 (i8*, ...) @printf(i8* getelementptr inbounds ([4 x i8], [4 x i8]* @.str, i64 0, i64 0), i8* %151)
  ret i32 0
}

declare dso_local i32 @gets(...) #1

; Function Attrs: nounwind readonly
declare dso_local i64 @strlen(i8*) #2

; Function Attrs: nounwind
declare dso_local i8* @strcpy(i8*, i8*) #3

declare dso_local i32 @printf(i8*, ...) #1


!llvm.module.flags = !{!0}
!llvm.ident = !{!1}

!0 = !{i32 1, !"wchar_size", i32 4}
!1 = !{!"clang version 10.0.0-4ubuntu1 "}
